target datalayout = "e-m:e-p270:32:32-p271:32:32-p272:64:64-i64:64-i128:128-f80:128-n8:16:32:64-S128"
target triple = "x86_64-pc-linux-gnu"

%"class.std::chrono::duration" = type { i64 }
%"struct.folly::detail::EventBasePoller::Stats" = type { i32, i32, i64, i64, %"class.std::chrono::duration", %"class.std::chrono::duration", %"class.std::chrono::duration", %"class.std::chrono::duration", %"class.std::chrono::duration", %"class.std::chrono::duration" }

; Function Attrs: mustprogress nounwind uwtable
define linkonce_odr noundef zeroext i1 @_ZNSt6chronoltIlSt5ratioILl1ELl1000000000EElS2_EEbRKNS_8durationIT_T0_EERKNS3_IT1_T2_EE(ptr noundef nonnull align 8 dereferenceable(8) %0, ptr noundef nonnull align 8 dereferenceable(8) %1) #0 comdat {
  %3 = alloca ptr, align 8
  %4 = alloca ptr, align 8
  %5 = alloca %"class.std::chrono::duration", align 8
  %6 = alloca %"class.std::chrono::duration", align 8
  store ptr %0, ptr %3, align 8, !tbaa !63
  store ptr %1, ptr %4, align 8, !tbaa !63
  call void @llvm.lifetime.start.p0(i64 8, ptr %5) #13
  %7 = load ptr, ptr %3, align 8, !tbaa !63
  call void @llvm.memcpy.p0.p0.i64(ptr align 8 %5, ptr align 8 %7, i64 8, i1 false), !tbaa.struct !60
  %8 = call noundef i64 @_ZNKSt6chrono8durationIlSt5ratioILl1ELl1000000000EEE5countEv(ptr noundef nonnull align 8 dereferenceable(8) %5)
  call void @llvm.lifetime.start.p0(i64 8, ptr %6) #13
  %9 = load ptr, ptr %4, align 8, !tbaa !63
  call void @llvm.memcpy.p0.p0.i64(ptr align 8 %6, ptr align 8 %9, i64 8, i1 false), !tbaa.struct !60
  %10 = call noundef i64 @_ZNKSt6chrono8durationIlSt5ratioILl1ELl1000000000EEE5countEv(ptr noundef nonnull align 8 dereferenceable(8) %6)
  %11 = icmp slt i64 %8, %10
  call void @llvm.lifetime.end.p0(i64 8, ptr %6) #13
  call void @llvm.lifetime.end.p0(i64 8, ptr %5) #13
  ret i1 %11
}

; Function Attrs: mustprogress nounwind uwtable
define linkonce_odr noundef i64 @_ZNKSt6chrono8durationIlSt5ratioILl1ELl1000000000EEE5countEv(ptr noundef nonnull align 8 dereferenceable(8) %0) #0 comdat align 2 {
  %2 = alloca ptr, align 8
  store ptr %0, ptr %2, align 8, !tbaa !63
  %3 = load ptr, ptr %2, align 8
  %4 = getelementptr inbounds nuw %"class.std::chrono::duration", ptr %3, i32 0, i32 0
  %5 = load i64, ptr %4, align 8, !tbaa !65
  ret i64 %5
}

; Function Attrs: inlinehint mustprogress nounwind uwtable
define linkonce_odr noundef nonnull align 8 dereferenceable(8) ptr @_ZSt3maxINSt6chrono8durationIlSt5ratioILl1ELl1000000000EEEEERKT_S7_S7_(ptr noundef nonnull align 8 dereferenceable(8) %0, ptr noundef nonnull align 8 dereferenceable(8) %1) #9 comdat {
  %3 = alloca ptr, align 8
  %4 = alloca ptr, align 8
  %5 = alloca ptr, align 8
  store ptr %0, ptr %4, align 8, !tbaa !63
  store ptr %1, ptr %5, align 8, !tbaa !63
  %6 = load ptr, ptr %4, align 8, !tbaa !63
  %7 = load ptr, ptr %5, align 8, !tbaa !63
  %8 = call noundef zeroext i1 @_ZNSt6chronoltIlSt5ratioILl1ELl1000000000EElS2_EEbRKNS_8durationIT_T0_EERKNS3_IT1_T2_EE(ptr noundef nonnull align 8 dereferenceable(8) %6, ptr noundef nonnull align 8 dereferenceable(8) %7)
  br i1 %8, label %9, label %11

9:                                                ; preds = %2
  %10 = load ptr, ptr %5, align 8, !tbaa !63
  store ptr %10, ptr %3, align 8
  br label %13

11:                                               ; preds = %2
  %12 = load ptr, ptr %4, align 8, !tbaa !63
  store ptr %12, ptr %3, align 8
  br label %13

13:                                               ; preds = %11, %9
  %14 = load ptr, ptr %3, align 8
  ret ptr %14
}

; Function Attrs: inlinehint mustprogress uwtable
define linkonce_odr noundef nonnull align 8 dereferenceable(8) ptr @_ZSt3minINSt6chrono8durationIlSt5ratioILl1ELl1000000000EEEEERKT_S7_S7_(ptr noundef nonnull align 8 dereferenceable(8) %0, ptr noundef nonnull align 8 dereferenceable(8) %1) #2 comdat {
  %3 = alloca ptr, align 8
  %4 = alloca ptr, align 8
  %5 = alloca ptr, align 8
  store ptr %0, ptr %4, align 8, !tbaa !63
  store ptr %1, ptr %5, align 8, !tbaa !63
  %6 = load ptr, ptr %5, align 8, !tbaa !63
  %7 = load ptr, ptr %4, align 8, !tbaa !63
  %8 = call noundef zeroext i1 @_ZNSt6chronoltIlSt5ratioILl1ELl1000000000EElS2_EEbRKNS_8durationIT_T0_EERKNS3_IT1_T2_EE(ptr noundef nonnull align 8 dereferenceable(8) %6, ptr noundef nonnull align 8 dereferenceable(8) %7)
  br i1 %8, label %9, label %11

9:                                                ; preds = %2
  %10 = load ptr, ptr %5, align 8, !tbaa !63
  store ptr %10, ptr %3, align 8
  br label %13

11:                                               ; preds = %2
  %12 = load ptr, ptr %4, align 8, !tbaa !63
  store ptr %12, ptr %3, align 8
  br label %13

13:                                               ; preds = %11, %9
  %14 = load ptr, ptr %3, align 8
  ret ptr %14
}

; Function Attrs: mustprogress uwtable
define linkonce_odr noundef nonnull align 8 dereferenceable(8) ptr @_ZNSt6chrono8durationIlSt5ratioILl1ELl1000000000EEEpLERKS3_(ptr noundef nonnull align 8 dereferenceable(8) %0, ptr noundef nonnull align 8 dereferenceable(8) %1) #4 comdat align 2 {
  %3 = alloca ptr, align 8
  %4 = alloca ptr, align 8
  store ptr %0, ptr %3, align 8, !tbaa !63
  store ptr %1, ptr %4, align 8, !tbaa !63
  %5 = load ptr, ptr %3, align 8
  %6 = load ptr, ptr %4, align 8, !tbaa !63
  %7 = call noundef i64 @_ZNKSt6chrono8durationIlSt5ratioILl1ELl1000000000EEE5countEv(ptr noundef nonnull align 8 dereferenceable(8) %6)
  %8 = getelementptr inbounds nuw %"class.std::chrono::duration", ptr %5, i32 0, i32 0
  %9 = load i64, ptr %8, align 8, !tbaa !65
  %10 = add nsw i64 %9, %7
  store i64 %10, ptr %8, align 8, !tbaa !65
  ret ptr %5
}

; Function Attrs: inlinehint mustprogress nounwind uwtable
define linkonce_odr noundef nonnull align 4 dereferenceable(4) ptr @_ZSt3maxIiERKT_S2_S2_(ptr noundef nonnull align 4 dereferenceable(4) %0, ptr noundef nonnull align 4 dereferenceable(4) %1) #9 comdat {
  %3 = alloca ptr, align 8
  %4 = alloca ptr, align 8
  %5 = alloca ptr, align 8
  store ptr %0, ptr %4, align 8, !tbaa !61
  store ptr %1, ptr %5, align 8, !tbaa !61
  %6 = load ptr, ptr %4, align 8, !tbaa !61
  %7 = load i32, ptr %6, align 4, !tbaa !52
  %8 = load ptr, ptr %5, align 8, !tbaa !61
  %9 = load i32, ptr %8, align 4, !tbaa !52
  %10 = icmp slt i32 %7, %9
  br i1 %10, label %11, label %13

11:                                               ; preds = %2
  %12 = load ptr, ptr %5, align 8, !tbaa !61
  store ptr %12, ptr %3, align 8
  br label %15

13:                                               ; preds = %2
  %14 = load ptr, ptr %4, align 8, !tbaa !61
  store ptr %14, ptr %3, align 8
  br label %15

15:                                               ; preds = %13, %11
  %16 = load ptr, ptr %3, align 8
  ret ptr %16
}

; Function Attrs: inlinehint mustprogress nounwind uwtable
define linkonce_odr noundef nonnull align 4 dereferenceable(4) ptr @_ZSt3minIiERKT_S2_S2_(ptr noundef nonnull align 4 dereferenceable(4) %0, ptr noundef nonnull align 4 dereferenceable(4) %1) #9 comdat {
  %3 = alloca ptr, align 8
  %4 = alloca ptr, align 8
  %5 = alloca ptr, align 8
  store ptr %0, ptr %4, align 8, !tbaa !61
  store ptr %1, ptr %5, align 8, !tbaa !61
  %6 = load ptr, ptr %5, align 8, !tbaa !61
  %7 = load i32, ptr %6, align 4, !tbaa !52
  %8 = load ptr, ptr %4, align 8, !tbaa !61
  %9 = load i32, ptr %8, align 4, !tbaa !52
  %10 = icmp slt i32 %7, %9
  br i1 %10, label %11, label %13

11:                                               ; preds = %2
  %12 = load ptr, ptr %5, align 8, !tbaa !61
  store ptr %12, ptr %3, align 8
  br label %15

13:                                               ; preds = %2
  %14 = load ptr, ptr %4, align 8, !tbaa !61
  store ptr %14, ptr %3, align 8
  br label %15

15:                                               ; preds = %13, %11
  %16 = load ptr, ptr %3, align 8
  ret ptr %16
}

; Function Attrs: mustprogress uwtable
define void @_ZN5folly6detail15EventBasePoller5Stats6updateEiNSt6chrono8durationIlSt5ratioILl1ELl1000000000EEEES7_(ptr noundef nonnull align 8 dereferenceable(72) %0, i32 noundef %1, i64 %2, i64 %3) #4 align 2 {
  %5 = alloca %"class.std::chrono::duration", align 8
  %6 = alloca %"class.std::chrono::duration", align 8
  %7 = alloca ptr, align 8
  %8 = alloca i32, align 4
  %9 = getelementptr inbounds nuw %"class.std::chrono::duration", ptr %5, i32 0, i32 0
  store i64 %2, ptr %9, align 8
  %10 = getelementptr inbounds nuw %"class.std::chrono::duration", ptr %6, i32 0, i32 0
  store i64 %3, ptr %10, align 8
  store ptr %0, ptr %7, align 8, !tbaa !50
  store i32 %1, ptr %8, align 4, !tbaa !52
  %11 = load ptr, ptr %7, align 8
  %12 = getelementptr inbounds nuw %"struct.folly::detail::EventBasePoller::Stats", ptr %11, i32 0, i32 0
  %13 = call noundef nonnull align 4 dereferenceable(4) ptr @_ZSt3minIiERKT_S2_S2_(ptr noundef nonnull align 4 dereferenceable(4) %12, ptr noundef nonnull align 4 dereferenceable(4) %8)
  %14 = load i32, ptr %13, align 4, !tbaa !52
  %15 = getelementptr inbounds nuw %"struct.folly::detail::EventBasePoller::Stats", ptr %11, i32 0, i32 0
  store i32 %14, ptr %15, align 8, !tbaa !54
  %16 = getelementptr inbounds nuw %"struct.folly::detail::EventBasePoller::Stats", ptr %11, i32 0, i32 1
  %17 = call noundef nonnull align 4 dereferenceable(4) ptr @_ZSt3maxIiERKT_S2_S2_(ptr noundef nonnull align 4 dereferenceable(4) %16, ptr noundef nonnull align 4 dereferenceable(4) %8)
  %18 = load i32, ptr %17, align 4, !tbaa !52
  %19 = getelementptr inbounds nuw %"struct.folly::detail::EventBasePoller::Stats", ptr %11, i32 0, i32 1
  store i32 %18, ptr %19, align 4, !tbaa !57
  %20 = load i32, ptr %8, align 4, !tbaa !52
  %21 = sext i32 %20 to i64
  %22 = getelementptr inbounds nuw %"struct.folly::detail::EventBasePoller::Stats", ptr %11, i32 0, i32 2
  %23 = load i64, ptr %22, align 8, !tbaa !58
  %24 = add i64 %23, %21
  store i64 %24, ptr %22, align 8, !tbaa !58
  %25 = getelementptr inbounds nuw %"struct.folly::detail::EventBasePoller::Stats", ptr %11, i32 0, i32 3
  %26 = load i64, ptr %25, align 8, !tbaa !59
  %27 = add i64 %26, 1
  store i64 %27, ptr %25, align 8, !tbaa !59
  %28 = getelementptr inbounds nuw %"struct.folly::detail::EventBasePoller::Stats", ptr %11, i32 0, i32 4
  %29 = call noundef nonnull align 8 dereferenceable(8) ptr @_ZNSt6chrono8durationIlSt5ratioILl1ELl1000000000EEEpLERKS3_(ptr noundef nonnull align 8 dereferenceable(8) %28, ptr noundef nonnull align 8 dereferenceable(8) %5)
  %30 = getelementptr inbounds nuw %"struct.folly::detail::EventBasePoller::Stats", ptr %11, i32 0, i32 5
  %31 = call noundef nonnull align 8 dereferenceable(8) ptr @_ZSt3minINSt6chrono8durationIlSt5ratioILl1ELl1000000000EEEEERKT_S7_S7_(ptr noundef nonnull align 8 dereferenceable(8) %30, ptr noundef nonnull align 8 dereferenceable(8) %5)
  %32 = getelementptr inbounds nuw %"struct.folly::detail::EventBasePoller::Stats", ptr %11, i32 0, i32 5
  call void @llvm.memcpy.p0.p0.i64(ptr align 8 %32, ptr align 8 %31, i64 8, i1 false), !tbaa.struct !60
  %33 = getelementptr inbounds nuw %"struct.folly::detail::EventBasePoller::Stats", ptr %11, i32 0, i32 6
  %34 = call noundef nonnull align 8 dereferenceable(8) ptr @_ZSt3maxINSt6chrono8durationIlSt5ratioILl1ELl1000000000EEEEERKT_S7_S7_(ptr noundef nonnull align 8 dereferenceable(8) %33, ptr noundef nonnull align 8 dereferenceable(8) %5)
  %35 = getelementptr inbounds nuw %"struct.folly::detail::EventBasePoller::Stats", ptr %11, i32 0, i32 6
  call void @llvm.memcpy.p0.p0.i64(ptr align 8 %35, ptr align 8 %34, i64 8, i1 false), !tbaa.struct !60
  %36 = getelementptr inbounds nuw %"struct.folly::detail::EventBasePoller::Stats", ptr %11, i32 0, i32 7
  %37 = call noundef nonnull align 8 dereferenceable(8) ptr @_ZNSt6chrono8durationIlSt5ratioILl1ELl1000000000EEEpLERKS3_(ptr noundef nonnull align 8 dereferenceable(8) %36, ptr noundef nonnull align 8 dereferenceable(8) %6)
  %38 = getelementptr inbounds nuw %"struct.folly::detail::EventBasePoller::Stats", ptr %11, i32 0, i32 8
  %39 = call noundef nonnull align 8 dereferenceable(8) ptr @_ZSt3minINSt6chrono8durationIlSt5ratioILl1ELl1000000000EEEEERKT_S7_S7_(ptr noundef nonnull align 8 dereferenceable(8) %38, ptr noundef nonnull align 8 dereferenceable(8) %6)
  %40 = getelementptr inbounds nuw %"struct.folly::detail::EventBasePoller::Stats", ptr %11, i32 0, i32 8
  call void @llvm.memcpy.p0.p0.i64(ptr align 8 %40, ptr align 8 %39, i64 8, i1 false), !tbaa.struct !60
  %41 = getelementptr inbounds nuw %"struct.folly::detail::EventBasePoller::Stats", ptr %11, i32 0, i32 9
  %42 = call noundef nonnull align 8 dereferenceable(8) ptr @_ZSt3maxINSt6chrono8durationIlSt5ratioILl1ELl1000000000EEEEERKT_S7_S7_(ptr noundef nonnull align 8 dereferenceable(8) %41, ptr noundef nonnull align 8 dereferenceable(8) %6)
  %43 = getelementptr inbounds nuw %"struct.folly::detail::EventBasePoller::Stats", ptr %11, i32 0, i32 9
  call void @llvm.memcpy.p0.p0.i64(ptr align 8 %43, ptr align 8 %42, i64 8, i1 false), !tbaa.struct !60
  ret void
}