; Function Attrs: mustprogress nofree norecurse nosync nounwind willreturn memory(argmem: readwrite) uwtable
define void @_ZN5folly6detail15EventBasePoller5Stats6updateEiNSt6chrono8durationIlSt5ratioILl1ELl1000000000EEEES7_(ptr noundef nonnull align 8 captures(none) dereferenceable(72) %0, i32 noundef %1, i64 %2, i64 %3) local_unnamed_addr #12 align 2 {
  %5 = load i32, ptr %0, align 8, !tbaa !22
  %.sroa.speculated10 = tail call i32 @llvm.smin.i32(i32 %1, i32 %5)
  store i32 %.sroa.speculated10, ptr %0, align 8, !tbaa !24
  %6 = getelementptr inbounds nuw i8, ptr %0, i64 4
  %7 = load i32, ptr %6, align 4, !tbaa !22
  %.sroa.speculated = tail call i32 @llvm.smax.i32(i32 %7, i32 %1)
  store i32 %.sroa.speculated, ptr %6, align 4, !tbaa !27
  %8 = sext i32 %1 to i64
  %9 = getelementptr inbounds nuw i8, ptr %0, i64 8
  %10 = load i64, ptr %9, align 8, !tbaa !28
  %11 = add i64 %10, %8
  store i64 %11, ptr %9, align 8, !tbaa !28
  %12 = getelementptr inbounds nuw i8, ptr %0, i64 16
  %13 = load i64, ptr %12, align 8, !tbaa !29
  %14 = add i64 %13, 1
  store i64 %14, ptr %12, align 8, !tbaa !29
  %15 = getelementptr inbounds nuw i8, ptr %0, i64 24
  %16 = load i64, ptr %15, align 8, !tbaa !30
  %17 = add nsw i64 %16, %2
  store i64 %17, ptr %15, align 8, !tbaa !30
  %18 = getelementptr inbounds nuw i8, ptr %0, i64 32
  %19 = load i64, ptr %18, align 8, !tbaa !13
  %.sroa.speculated33 = tail call i64 @llvm.smin.i64(i64 %2, i64 %19)
  store i64 %.sroa.speculated33, ptr %18, align 8, !tbaa !13
  %20 = getelementptr inbounds nuw i8, ptr %0, i64 40
  %21 = load i64, ptr %20, align 8, !tbaa !13
  %.sroa.speculated30 = tail call i64 @llvm.smax.i64(i64 %21, i64 %2)
  store i64 %.sroa.speculated30, ptr %20, align 8, !tbaa !13
  %22 = getelementptr inbounds nuw i8, ptr %0, i64 48
  %23 = load i64, ptr %22, align 8, !tbaa !30
  %24 = add nsw i64 %23, %3
  store i64 %24, ptr %22, align 8, !tbaa !30
  %25 = getelementptr inbounds nuw i8, ptr %0, i64 56
  %26 = load i64, ptr %25, align 8, !tbaa !13
  %.sroa.speculated21 = tail call i64 @llvm.smin.i64(i64 %3, i64 %26)
  store i64 %.sroa.speculated21, ptr %25, align 8, !tbaa !13
  %27 = getelementptr inbounds nuw i8, ptr %0, i64 64
  %28 = load i64, ptr %27, align 8, !tbaa !13
  %.sroa.speculated18 = tail call i64 @llvm.smax.i64(i64 %28, i64 %3)
  store i64 %.sroa.speculated18, ptr %27, align 8, !tbaa !13
  ret void
}